; Function Attrs: nounwind uwtable
define internal void @nstime_update_impl(ptr noundef captures(none) %0) #3 {
  %2 = alloca %struct.timespec, align 8
  %3 = load i64, ptr %0, align 8, !tbaa !9
  call void @llvm.lifetime.start.p0(i64 16, ptr nonnull %2) #8
  %4 = call i32 @clock_gettime(i32 noundef 6, ptr noundef nonnull %2) #8
  %5 = load i64, ptr %2, align 8, !tbaa !10
  %6 = getelementptr inbounds nuw i8, ptr %2, i64 8
  %7 = load i64, ptr %6, align 8, !tbaa !12
  %8 = mul i64 %5, 1000000000
  %9 = add i64 %8, %7
  store i64 %9, ptr %0, align 8, !tbaa !4
  call void @llvm.lifetime.end.p0(i64 16, ptr nonnull %2) #8
  %10 = icmp ugt i64 %3, %9
  br i1 %10, label %11, label %12, !prof !13

11:                                               ; preds = %1
  store i64 %3, ptr %0, align 8, !tbaa !9
  br label %12

12:                                               ; preds = %11, %1
  ret void
}